; Function Attrs: mustprogress nofree nounwind willreturn memory(read) uwtable
define hidden noundef zeroext i1 @_ZNK10__cxxabiv117__pbase_type_info9can_catchEPKNS_16__shim_type_infoERPv(ptr noundef nonnull readonly align 8 captures(address) dereferenceable(32) %0, ptr noundef readonly %1, ptr nonnull readnone align 8 captures(none) %2) unnamed_addr #13 align 2 {
  %4 = getelementptr inbounds nuw i8, ptr %0, i64 16
  %5 = load i32, ptr %4, align 8, !tbaa !50
  %6 = and i32 %5, 24
  %.not = icmp eq i32 %6, 0
  br i1 %.not, label %7, label %.thread18

7:                                                ; preds = %3
  %8 = icmp eq ptr %1, null
  br i1 %8, label %_ZL8is_equalPKSt9type_infoS1_b.exit, label %9

9:                                                ; preds = %7
  %10 = tail call ptr @__dynamic_cast(ptr nonnull %1, ptr nonnull @_ZTIN10__cxxabiv116__shim_type_infoE, ptr nonnull @_ZTIN10__cxxabiv117__pbase_type_infoE, i64 0) #18
  %.not.not = icmp eq ptr %10, null
  br i1 %.not.not, label %_ZL8is_equalPKSt9type_infoS1_b.exit, label %11

11:                                               ; preds = %9
  %12 = getelementptr inbounds nuw i8, ptr %10, i64 16
  %13 = load i32, ptr %12, align 8, !tbaa !50
  %14 = and i32 %13, 24
  %.not20 = icmp eq i32 %14, 0
  br i1 %.not20, label %15, label %.thread18

15:                                               ; preds = %11
  %16 = getelementptr inbounds nuw i8, ptr %0, i64 8
  %17 = load ptr, ptr %16, align 8, !tbaa !4
  %18 = getelementptr inbounds nuw i8, ptr %1, i64 8
  %19 = load ptr, ptr %18, align 8, !tbaa !4
  %20 = icmp eq ptr %17, %19
  br label %_ZL8is_equalPKSt9type_infoS1_b.exit

.thread18:                                        ; preds = %3, %11
  %21 = icmp eq ptr %0, %1
  br i1 %21, label %_ZL8is_equalPKSt9type_infoS1_b.exit, label %22

22:                                               ; preds = %.thread18
  %23 = getelementptr inbounds nuw i8, ptr %0, i64 8
  %24 = load ptr, ptr %23, align 8, !tbaa !4
  %25 = getelementptr inbounds nuw i8, ptr %1, i64 8
  %26 = load ptr, ptr %25, align 8, !tbaa !4
  %27 = tail call i32 @strcmp(ptr noundef nonnull dereferenceable(1) %24, ptr noundef nonnull dereferenceable(1) %26) #22
  %28 = icmp eq i32 %27, 0
  br label %_ZL8is_equalPKSt9type_infoS1_b.exit

_ZL8is_equalPKSt9type_infoS1_b.exit:              ; preds = %7, %9, %22, %.thread18, %15
  %.1 = phi i1 [ %20, %15 ], [ true, %.thread18 ], [ %28, %22 ], [ false, %9 ], [ false, %7 ]
  ret i1 %.1
}